target datalayout = "e-m:e-p270:32:32-p271:32:32-p272:64:64-i64:64-i128:128-f80:128-n8:16:32:64-S128"
target triple = "x86_64-pc-linux-gnu"

%"class.euf::egraph" = type { ptr, %class.svector, %"class.euf::etable", %class.region, %class.scoped_ptr_vector, %class.svector.3, %class.svector.5, %class.ptr_vector.7, ptr, ptr, i32, %class.tmp_app, %class.ptr_vector.7, %class.ref_vector, %class.ref_vector.11, %class.vector.16, %class.ptr_vector.7, i32, i8, ptr, ptr, %"class.euf::justification", i32, %class.svector.18, %class.svector.20, %class.ptr_vector.7, %"struct.euf::egraph::stats", i8, i8, i64, %"class.std::vector", %"class.std::function", %"class.std::function.22", %"class.std::function.24", %"class.std::function.26", %"class.std::function.29" }
%class.svector = type { %class.vector }
%class.vector = type { ptr }
%"class.euf::etable" = type { ptr, i8, %class.ptr_vector, %class.map }
%class.ptr_vector = type { %class.vector.0 }
%class.vector.0 = type { ptr }
%class.map = type { %class.table2map }
%class.table2map = type { %class.core_hashtable }
%class.core_hashtable = type <{ ptr, i32, i32, i32, [4 x i8] }>
%class.region = type { ptr, ptr, ptr, ptr, ptr }
%class.scoped_ptr_vector = type { %class.ptr_vector.1 }
%class.ptr_vector.1 = type { %class.vector.2 }
%class.vector.2 = type { ptr }
%class.svector.3 = type { %class.vector.4 }
%class.vector.4 = type { ptr }
%class.svector.5 = type { %class.vector.6 }
%class.vector.6 = type { ptr }
%class.tmp_app = type { i32, ptr }
%class.ref_vector = type { %class.ref_vector_core }
%class.ref_vector_core = type { %class.ref_manager_wrapper, %class.ptr_vector.9 }
%class.ref_manager_wrapper = type { ptr }
%class.ptr_vector.9 = type { %class.vector.10 }
%class.vector.10 = type { ptr }
%class.ref_vector.11 = type { %class.ref_vector_core.12 }
%class.ref_vector_core.12 = type { %class.ref_manager_wrapper.13, %class.ptr_vector.14 }
%class.ref_manager_wrapper.13 = type { ptr }
%class.ptr_vector.14 = type { %class.vector.15 }
%class.vector.15 = type { ptr }
%class.vector.16 = type { ptr }
%"class.euf::justification" = type { i32, %union.anon, %union.anon.17 }
%union.anon = type { ptr }
%union.anon.17 = type { ptr }
%class.svector.18 = type { %class.vector.19 }
%class.vector.19 = type { ptr }
%class.svector.20 = type { %class.vector.21 }
%class.vector.21 = type { ptr }
%class.ptr_vector.7 = type { %class.vector.8 }
%class.vector.8 = type { ptr }
%"struct.euf::egraph::stats" = type { i32, i32, i32, i32, i32, i32 }
%"class.std::vector" = type { %"struct.std::_Vector_base" }
%"struct.std::_Vector_base" = type { %"struct.std::_Vector_base<std::function<void (euf::enode *, euf::enode *)>, std::allocator<std::function<void (euf::enode *, euf::enode *)>>>::_Vector_impl" }
%"struct.std::_Vector_base<std::function<void (euf::enode *, euf::enode *)>, std::allocator<std::function<void (euf::enode *, euf::enode *)>>>::_Vector_impl" = type { %"struct.std::_Vector_base<std::function<void (euf::enode *, euf::enode *)>, std::allocator<std::function<void (euf::enode *, euf::enode *)>>>::_Vector_impl_data" }
%"struct.std::_Vector_base<std::function<void (euf::enode *, euf::enode *)>, std::allocator<std::function<void (euf::enode *, euf::enode *)>>>::_Vector_impl_data" = type { ptr, ptr, ptr }
%"class.std::function" = type { %"class.std::_Function_base", ptr }
%"class.std::_Function_base" = type { %"union.std::_Any_data", ptr }
%"union.std::_Any_data" = type { %"union.std::_Nocopy_types" }
%"union.std::_Nocopy_types" = type { { i64, i64 } }
%"class.std::function.22" = type { %"class.std::_Function_base", ptr }
%"class.std::function.24" = type { %"class.std::_Function_base", ptr }
%"class.std::function.26" = type { %"class.std::_Function_base", ptr }
%"class.std::function.29" = type { %"class.std::_Function_base", ptr }
%"class.euf::enode" = type { ptr, i8, i8, i8, i8, i8, i8, i8, i8, i8, i32, i32, i32, i32, i32, i32, %class.ptr_vector.7, ptr, ptr, ptr, ptr, %class.id_var_list, %"class.euf::justification", %"class.euf::justification", i32, i8, %class.approx_set, %class.approx_set, [0 x ptr] }
%class.id_var_list = type { i32, ptr }
%class.approx_set = type { %class.approx_set_tpl }
%class.approx_set_tpl = type { i64 }
%"struct.euf::egraph::update_record" = type { i32, ptr, ptr, %union.anon.32 }
%union.anon.32 = type { i64 }
%class.ast_manager = type { %class.reslimit, %class.small_object_allocator, %class.family_manager, %class.parray_manager, %class.dependency_manager, %class.parray_manager.48, %class.ptr_vector.51, i32, i8, %class.ast_table, %class.obj_map, %class.id_gen, %class.id_gen, ptr, ptr, ptr, ptr, ptr, i32, i8, [3 x i8], %class.u_map, ptr, i8, i8, ptr, %class.symbol, %class.obj_map.59, ptr }
%class.reslimit = type { %"struct.std::atomic", i8, i64, i64, %class.svector.33, %class.ptr_vector.35 }
%"struct.std::atomic" = type { %"struct.std::__atomic_base" }
%"struct.std::__atomic_base" = type { i32 }
%class.svector.33 = type { %class.vector.34 }
%class.vector.34 = type { ptr }
%class.ptr_vector.35 = type { %class.vector.36 }
%class.vector.36 = type { ptr }
%class.small_object_allocator = type { [32 x ptr], [32 x ptr], i64 }
%class.family_manager = type { i32, %class.symbol_table, %class.svector.42 }
%class.symbol_table = type { %class.core_hashtable.37, %class.vector.39, %class.svector.40 }
%class.core_hashtable.37 = type <{ ptr, i32, i32, i32, [4 x i8] }>
%class.vector.39 = type { ptr }
%class.svector.40 = type { %class.vector.41 }
%class.vector.41 = type { ptr }
%class.svector.42 = type { %class.vector.43 }
%class.vector.43 = type { ptr }
%class.parray_manager = type { ptr, ptr, %class.ptr_vector.44, %class.ptr_vector.44 }
%class.ptr_vector.44 = type { %class.vector.45 }
%class.vector.45 = type { ptr }
%class.dependency_manager = type { ptr, ptr, %class.ptr_vector.46 }
%class.ptr_vector.46 = type { %class.vector.47 }
%class.vector.47 = type { ptr }
%class.parray_manager.48 = type { ptr, ptr, %class.ptr_vector.49, %class.ptr_vector.49 }
%class.ptr_vector.49 = type { %class.vector.50 }
%class.vector.50 = type { ptr }
%class.ptr_vector.51 = type { %class.vector.52 }
%class.vector.52 = type { ptr }
%class.ast_table = type { %class.chashtable }
%class.chashtable = type { ptr, i32, i32, i32, i32, i32, i32, i32, ptr, ptr, ptr }
%class.obj_map = type { %class.core_hashtable.53 }
%class.core_hashtable.53 = type <{ ptr, i32, i32, i32, [4 x i8] }>
%class.id_gen = type { i32, %class.svector.5 }
%class.u_map = type { %class.map.55 }
%class.map.55 = type { %class.table2map.56 }
%class.table2map.56 = type { %class.core_hashtable.57 }
%class.core_hashtable.57 = type <{ ptr, i32, i32, i32, [4 x i8] }>
%class.symbol = type { ptr }
%class.obj_map.59 = type { %class.core_hashtable.60 }
%class.core_hashtable.60 = type <{ ptr, i32, i32, i32, [4 x i8] }>

; Function Attrs: mustprogress nounwind uwtable
define linkonce_odr hidden noundef i32 @_ZNK6vectorIPN3euf5enodeELb0EjE4sizeEv(ptr noundef nonnull align 8 dereferenceable(8) %0) #6 comdat align 2 {
  %2 = alloca i32, align 4
  %3 = alloca ptr, align 8
  store ptr %0, ptr %3, align 8, !tbaa !106
  %4 = load ptr, ptr %3, align 8
  %5 = getelementptr inbounds nuw %class.vector.8, ptr %4, i32 0, i32 0
  %6 = load ptr, ptr %5, align 8, !tbaa !108
  %7 = icmp eq ptr %6, null
  br i1 %7, label %8, label %9

8:                                                ; preds = %1
  store i32 0, ptr %2, align 4
  br label %14

9:                                                ; preds = %1
  %10 = getelementptr inbounds nuw %class.vector.8, ptr %4, i32 0, i32 0
  %11 = load ptr, ptr %10, align 8, !tbaa !108
  %12 = getelementptr inbounds i32, ptr %11, i64 -1
  %13 = load i32, ptr %12, align 4, !tbaa !10
  store i32 %13, ptr %2, align 4
  br label %14

14:                                               ; preds = %9, %8
  %15 = load i32, ptr %2, align 4
  ret i32 %15
}

; Function Attrs: mustprogress nounwind uwtable
define linkonce_odr hidden noundef i32 @_ZNK3euf5enode8num_argsEv(ptr noundef nonnull align 8 dereferenceable(176) %0) #6 comdat align 2 {
  %2 = alloca ptr, align 8
  store ptr %0, ptr %2, align 8, !tbaa !15
  %3 = load ptr, ptr %2, align 8
  %4 = getelementptr inbounds nuw %"class.euf::enode", ptr %3, i32 0, i32 24
  %5 = load i32, ptr %4, align 8, !tbaa !101
  ret i32 %5
}

; Function Attrs: mustprogress uwtable
define linkonce_odr hidden noundef i32 @_ZNK3euf5enode11num_parentsEv(ptr noundef nonnull align 8 dereferenceable(176) %0) #4 comdat align 2 {
  %2 = alloca ptr, align 8
  store ptr %0, ptr %2, align 8, !tbaa !15
  %3 = load ptr, ptr %2, align 8
  %4 = getelementptr inbounds nuw %"class.euf::enode", ptr %3, i32 0, i32 16
  %5 = call noundef i32 @_ZNK6vectorIPN3euf5enodeELb0EjE4sizeEv(ptr noundef nonnull align 8 dereferenceable(8) %4)
  ret i32 %5
}

; Function Attrs: mustprogress nounwind uwtable
define linkonce_odr hidden noundef i32 @_ZNK3euf5enode10class_sizeEv(ptr noundef nonnull align 8 dereferenceable(176) %0) #6 comdat align 2 {
  %2 = alloca ptr, align 8
  store ptr %0, ptr %2, align 8, !tbaa !15
  %3 = load ptr, ptr %2, align 8
  %4 = getelementptr inbounds nuw %"class.euf::enode", ptr %3, i32 0, i32 13
  %5 = load i32, ptr %4, align 8, !tbaa !366
  ret i32 %5
}

; Function Attrs: mustprogress uwtable
define linkonce_odr hidden noundef nonnull align 8 dereferenceable(8) ptr @_ZN6vectorIN3euf6egraph13update_recordELb0EjE9push_backEOS2_(ptr noundef nonnull align 8 dereferenceable(8) %0, ptr noundef nonnull align 8 dereferenceable(32) %1) #4 comdat align 2 {
  %3 = alloca ptr, align 8
  %4 = alloca ptr, align 8
  store ptr %0, ptr %3, align 8, !tbaa !165
  store ptr %1, ptr %4, align 8, !tbaa !168
  %5 = load ptr, ptr %3, align 8
  %6 = getelementptr inbounds nuw %class.vector.4, ptr %5, i32 0, i32 0
  %7 = load ptr, ptr %6, align 8, !tbaa !167
  %8 = icmp eq ptr %7, null
  br i1 %8, label %19, label %9

9:                                                ; preds = %2
  %10 = getelementptr inbounds nuw %class.vector.4, ptr %5, i32 0, i32 0
  %11 = load ptr, ptr %10, align 8, !tbaa !167
  %12 = getelementptr inbounds i32, ptr %11, i64 -1
  %13 = load i32, ptr %12, align 4, !tbaa !10
  %14 = getelementptr inbounds nuw %class.vector.4, ptr %5, i32 0, i32 0
  %15 = load ptr, ptr %14, align 8, !tbaa !167
  %16 = getelementptr inbounds i32, ptr %15, i64 -2
  %17 = load i32, ptr %16, align 4, !tbaa !10
  %18 = icmp eq i32 %13, %17
  br i1 %18, label %19, label %20

19:                                               ; preds = %9, %2
  call void @_ZN6vectorIN3euf6egraph13update_recordELb0EjE13expand_vectorEv(ptr noundef nonnull align 8 dereferenceable(8) %5)
  br label %20

20:                                               ; preds = %19, %9
  %21 = getelementptr inbounds nuw %class.vector.4, ptr %5, i32 0, i32 0
  %22 = load ptr, ptr %21, align 8, !tbaa !167
  %23 = getelementptr inbounds nuw %class.vector.4, ptr %5, i32 0, i32 0
  %24 = load ptr, ptr %23, align 8, !tbaa !167
  %25 = getelementptr inbounds i32, ptr %24, i64 -1
  %26 = load i32, ptr %25, align 4, !tbaa !10
  %27 = zext i32 %26 to i64
  %28 = getelementptr inbounds nuw %"struct.euf::egraph::update_record", ptr %22, i64 %27
  %29 = load ptr, ptr %4, align 8, !tbaa !168
  call void @llvm.memcpy.p0.p0.i64(ptr align 8 %28, ptr align 8 %29, i64 32, i1 false), !tbaa.struct !169
  %30 = getelementptr inbounds nuw %class.vector.4, ptr %5, i32 0, i32 0
  %31 = load ptr, ptr %30, align 8, !tbaa !167
  %32 = getelementptr inbounds i32, ptr %31, i64 -1
  %33 = load i32, ptr %32, align 4, !tbaa !10
  %34 = add i32 %33, 1
  store i32 %34, ptr %32, align 4, !tbaa !10
  ret ptr %5
}

; Function Attrs: mustprogress nounwind uwtable
define linkonce_odr hidden void @_ZN3euf6egraph13update_recordC2EPNS_5enodeENS1_15toggle_merge_tfE(ptr noundef nonnull align 8 dereferenceable(32) %0, ptr noundef %1) unnamed_addr #6 comdat align 2 {
  %3 = alloca ptr, align 8
  %4 = alloca ptr, align 8
  store ptr %0, ptr %3, align 8, !tbaa !168
  store ptr %1, ptr %4, align 8, !tbaa !15
  %5 = load ptr, ptr %3, align 8
  %6 = getelementptr inbounds nuw %"struct.euf::egraph::update_record", ptr %5, i32 0, i32 0
  store i32 3, ptr %6, align 8, !tbaa !172
  %7 = getelementptr inbounds nuw %"struct.euf::egraph::update_record", ptr %5, i32 0, i32 1
  %8 = load ptr, ptr %4, align 8, !tbaa !15
  store ptr %8, ptr %7, align 8, !tbaa !174
  %9 = getelementptr inbounds nuw %"struct.euf::egraph::update_record", ptr %5, i32 0, i32 2
  store ptr null, ptr %9, align 8, !tbaa !175
  %10 = getelementptr inbounds nuw %"struct.euf::egraph::update_record", ptr %5, i32 0, i32 3
  store i32 -1, ptr %10, align 8, !tbaa !140
  ret void
}

; Function Attrs: mustprogress nounwind uwtable
define linkonce_odr hidden void @_ZN3euf5enode12set_merge_tfEb(ptr noundef nonnull align 8 dereferenceable(176) %0, i1 noundef zeroext %1) #6 comdat align 2 {
  %3 = alloca ptr, align 8
  %4 = alloca i8, align 1
  store ptr %0, ptr %3, align 8, !tbaa !15
  %5 = zext i1 %1 to i8
  store i8 %5, ptr %4, align 1, !tbaa !104
  %6 = load ptr, ptr %3, align 8
  %7 = load i8, ptr %4, align 1, !tbaa !104, !range !82, !noundef !83
  %8 = trunc i8 %7 to i1
  %9 = getelementptr inbounds nuw %"class.euf::enode", ptr %6, i32 0, i32 7
  %10 = zext i1 %8 to i8
  store i8 %10, ptr %9, align 2, !tbaa !346
  ret void
}

; Function Attrs: mustprogress uwtable
define linkonce_odr hidden noundef zeroext i1 @_ZNK3euf5enode8merge_tfEv(ptr noundef nonnull align 8 dereferenceable(176) %0) #4 comdat align 2 {
  %2 = alloca ptr, align 8
  store ptr %0, ptr %2, align 8, !tbaa !15
  %3 = load ptr, ptr %2, align 8
  %4 = getelementptr inbounds nuw %"class.euf::enode", ptr %3, i32 0, i32 7
  %5 = load i8, ptr %4, align 2, !tbaa !346, !range !82, !noundef !83
  %6 = trunc i8 %5 to i1
  br i1 %6, label %7, label %18

7:                                                ; preds = %1
  %8 = call noundef i32 @_ZNK3euf5enode10class_sizeEv(ptr noundef nonnull align 8 dereferenceable(176) %3)
  %9 = icmp ugt i32 %8, 1
  br i1 %9, label %16, label %10

10:                                               ; preds = %7
  %11 = call noundef i32 @_ZNK3euf5enode11num_parentsEv(ptr noundef nonnull align 8 dereferenceable(176) %3)
  %12 = icmp ugt i32 %11, 0
  br i1 %12, label %16, label %13

13:                                               ; preds = %10
  %14 = call noundef i32 @_ZNK3euf5enode8num_argsEv(ptr noundef nonnull align 8 dereferenceable(176) %3)
  %15 = icmp ugt i32 %14, 0
  br label %16

16:                                               ; preds = %13, %10, %7
  %17 = phi i1 [ true, %10 ], [ true, %7 ], [ %15, %13 ]
  br label %18

18:                                               ; preds = %16, %1
  %19 = phi i1 [ false, %1 ], [ %17, %16 ]
  ret i1 %19
}

; Function Attrs: mustprogress nounwind uwtable
define linkonce_odr hidden noundef zeroext i1 @_ZNK11ast_manager7is_boolEPK4sort(ptr noundef nonnull align 8 dereferenceable(976) %0, ptr noundef %1) #6 comdat align 2 {
  %3 = alloca ptr, align 8
  %4 = alloca ptr, align 8
  store ptr %0, ptr %3, align 8, !tbaa !186
  store ptr %1, ptr %4, align 8, !tbaa !344
  %5 = load ptr, ptr %3, align 8
  %6 = load ptr, ptr %4, align 8, !tbaa !344
  %7 = getelementptr inbounds nuw %class.ast_manager, ptr %5, i32 0, i32 13
  %8 = load ptr, ptr %7, align 8, !tbaa !345
  %9 = icmp eq ptr %6, %8
  ret i1 %9
}

; Function Attrs: mustprogress uwtable
define linkonce_odr hidden noundef ptr @_ZNK3euf5enode8get_sortEv(ptr noundef nonnull align 8 dereferenceable(176) %0) #4 comdat align 2 {
  %2 = alloca ptr, align 8
  store ptr %0, ptr %2, align 8, !tbaa !15
  %3 = load ptr, ptr %2, align 8
  %4 = getelementptr inbounds nuw %"class.euf::enode", ptr %3, i32 0, i32 0
  %5 = load ptr, ptr %4, align 8, !tbaa !89
  %6 = call noundef ptr @_ZNK4expr8get_sortEv(ptr noundef nonnull align 4 dereferenceable(16) %5)
  ret ptr %6
}

; Function Attrs: mustprogress uwtable
define hidden void @_ZN3euf6egraph20set_merge_tf_enabledEPNS_5enodeEb(ptr noundef nonnull align 8 dereferenceable(536) %0, ptr noundef %1, i1 noundef zeroext %2) #4 align 2 {
  %4 = alloca ptr, align 8
  %5 = alloca ptr, align 8
  %6 = alloca i8, align 1
  %7 = alloca %"struct.euf::egraph::update_record", align 8
  store ptr %0, ptr %4, align 8, !tbaa !3
  store ptr %1, ptr %5, align 8, !tbaa !15
  %8 = zext i1 %2 to i8
  store i8 %8, ptr %6, align 1, !tbaa !104
  %9 = load ptr, ptr %4, align 8
  %10 = getelementptr inbounds nuw %"class.euf::egraph", ptr %9, i32 0, i32 0
  %11 = load ptr, ptr %10, align 8, !tbaa !180
  %12 = load ptr, ptr %5, align 8, !tbaa !15
  %13 = call noundef ptr @_ZNK3euf5enode8get_sortEv(ptr noundef nonnull align 8 dereferenceable(176) %12)
  %14 = call noundef zeroext i1 @_ZNK11ast_manager7is_boolEPK4sort(ptr noundef nonnull align 8 dereferenceable(976) %11, ptr noundef %13)
  br i1 %14, label %16, label %15

15:                                               ; preds = %3
  br label %31

16:                                               ; preds = %3
  %17 = load i8, ptr %6, align 1, !tbaa !104, !range !82, !noundef !83
  %18 = trunc i8 %17 to i1
  %19 = zext i1 %18 to i32
  %20 = load ptr, ptr %5, align 8, !tbaa !15
  %21 = call noundef zeroext i1 @_ZNK3euf5enode8merge_tfEv(ptr noundef nonnull align 8 dereferenceable(176) %20)
  %22 = zext i1 %21 to i32
  %23 = icmp ne i32 %19, %22
  br i1 %23, label %24, label %31

24:                                               ; preds = %16
  %25 = load ptr, ptr %5, align 8, !tbaa !15
  %26 = load i8, ptr %6, align 1, !tbaa !104, !range !82, !noundef !83
  %27 = trunc i8 %26 to i1
  call void @_ZN3euf5enode12set_merge_tfEb(ptr noundef nonnull align 8 dereferenceable(176) %25, i1 noundef zeroext %27)
  %28 = getelementptr inbounds nuw %"class.euf::egraph", ptr %9, i32 0, i32 5
  call void @llvm.lifetime.start.p0(i64 32, ptr %7) #3
  %29 = load ptr, ptr %5, align 8, !tbaa !15
  call void @_ZN3euf6egraph13update_recordC2EPNS_5enodeENS1_15toggle_merge_tfE(ptr noundef nonnull align 8 dereferenceable(32) %7, ptr noundef %29)
  %30 = call noundef nonnull align 8 dereferenceable(8) ptr @_ZN6vectorIN3euf6egraph13update_recordELb0EjE9push_backEOS2_(ptr noundef nonnull align 8 dereferenceable(8) %28, ptr noundef nonnull align 8 dereferenceable(32) %7)
  call void @llvm.lifetime.end.p0(i64 32, ptr %7) #3
  br label %31

31:                                               ; preds = %15, %24, %16
  ret void
}