; Function Attrs: mustprogress uwtable
define hidden void @_ZN3euf6egraph20set_merge_tf_enabledEPNS_5enodeEb(ptr noundef nonnull align 8 dereferenceable(536) %0, ptr noundef %1, i1 noundef zeroext %2) local_unnamed_addr #3 align 2 {
  %4 = load ptr, ptr %0, align 8, !tbaa !144
  %5 = load ptr, ptr %1, align 8, !tbaa !30
  %6 = tail call noundef ptr @_ZNK4expr8get_sortEv(ptr noundef nonnull align 4 dereferenceable(16) %5)
  %7 = getelementptr inbounds nuw i8, ptr %4, i64 840
  %8 = load ptr, ptr %7, align 8, !tbaa !252
  %9 = icmp eq ptr %6, %8
  br i1 %9, label %10, label %48

10:                                               ; preds = %3
  %11 = getelementptr inbounds nuw i8, ptr %1, i64 14
  %12 = load i8, ptr %11, align 2, !tbaa !253, !range !109, !noundef !110
  %13 = trunc nuw i8 %12 to i1
  br i1 %13, label %14, label %._ZNK3euf5enode8merge_tfEv.exit_crit_edge

._ZNK3euf5enode8merge_tfEv.exit_crit_edge:        ; preds = %10
  br i1 %2, label %28, label %48

14:                                               ; preds = %10
  %15 = getelementptr inbounds nuw i8, ptr %1, i64 32
  %16 = load i32, ptr %15, align 8, !tbaa !26
  %17 = icmp ugt i32 %16, 1
  br i1 %17, label %_ZNK3euf5enode8merge_tfEv.exit.thr_comm, label %18

18:                                               ; preds = %14
  %19 = getelementptr inbounds nuw i8, ptr %1, i64 48
  %20 = load ptr, ptr %19, align 8, !tbaa !112
  %21 = icmp eq ptr %20, null
  br i1 %21, label %_ZNK3euf5enode8merge_tfEv.exit, label %_ZNK3euf5enode11num_parentsEv.exit.i

_ZNK3euf5enode11num_parentsEv.exit.i:             ; preds = %18
  %22 = getelementptr inbounds i8, ptr %20, i64 -4
  %23 = load i32, ptr %22, align 4, !tbaa !113
  %.not.i = icmp eq i32 %23, 0
  br i1 %.not.i, label %_ZNK3euf5enode8merge_tfEv.exit, label %_ZNK3euf5enode8merge_tfEv.exit.thr_comm

_ZNK3euf5enode8merge_tfEv.exit.thr_comm:          ; preds = %14, %_ZNK3euf5enode11num_parentsEv.exit.i
  br i1 %2, label %48, label %28

_ZNK3euf5enode8merge_tfEv.exit:                   ; preds = %18, %_ZNK3euf5enode11num_parentsEv.exit.i
  %24 = getelementptr inbounds nuw i8, ptr %1, i64 152
  %25 = load i32, ptr %24, align 8, !tbaa !46
  %26 = icmp ne i32 %25, 0
  %27 = xor i1 %2, %26
  br i1 %27, label %28, label %48

28:                                               ; preds = %._ZNK3euf5enode8merge_tfEv.exit_crit_edge, %_ZNK3euf5enode8merge_tfEv.exit.thr_comm, %_ZNK3euf5enode8merge_tfEv.exit
  %29 = zext i1 %2 to i8
  store i8 %29, ptr %11, align 2, !tbaa !253
  %30 = getelementptr inbounds nuw i8, ptr %0, i64 112
  %31 = load ptr, ptr %30, align 8, !tbaa !121
  %32 = icmp eq ptr %31, null
  br i1 %32, label %39, label %33

33:                                               ; preds = %28
  %34 = getelementptr inbounds i8, ptr %31, i64 -4
  %35 = load i32, ptr %34, align 4, !tbaa !113
  %36 = getelementptr inbounds i8, ptr %31, i64 -8
  %37 = load i32, ptr %36, align 4, !tbaa !113
  %38 = icmp eq i32 %35, %37
  br i1 %38, label %39, label %_ZN6vectorIN3euf6egraph13update_recordELb0EjE9push_backEOS2_.exit

39:                                               ; preds = %33, %28
  tail call void @_ZN6vectorIN3euf6egraph13update_recordELb0EjE13expand_vectorEv(ptr noundef nonnull align 8 dereferenceable(8) %30)
  %.pre.i = load ptr, ptr %30, align 8, !tbaa !121
  %.phi.trans.insert.i = getelementptr inbounds i8, ptr %.pre.i, i64 -4
  %.pre2.i = load i32, ptr %.phi.trans.insert.i, align 4, !tbaa !113
  br label %_ZN6vectorIN3euf6egraph13update_recordELb0EjE9push_backEOS2_.exit

_ZN6vectorIN3euf6egraph13update_recordELb0EjE9push_backEOS2_.exit: ; preds = %33, %39
  %40 = phi i32 [ %.pre2.i, %39 ], [ %35, %33 ]
  %41 = phi ptr [ %.pre.i, %39 ], [ %31, %33 ]
  %42 = zext i32 %40 to i64
  %43 = getelementptr inbounds nuw %"struct.euf::egraph::update_record", ptr %41, i64 %42
  store i32 3, ptr %43, align 8, !tbaa !122
  %.sroa.46.0..sroa_idx = getelementptr inbounds nuw i8, ptr %43, i64 8
  store ptr %1, ptr %.sroa.46.0..sroa_idx, align 8, !tbaa !47
  %.sroa.5.0..sroa_idx = getelementptr inbounds nuw i8, ptr %43, i64 16
  store ptr null, ptr %.sroa.5.0..sroa_idx, align 8, !tbaa !47
  %.sroa.6.0..sroa_idx = getelementptr inbounds nuw i8, ptr %43, i64 24
  store i32 -1, ptr %.sroa.6.0..sroa_idx, align 8
  %44 = load ptr, ptr %30, align 8, !tbaa !121
  %45 = getelementptr inbounds i8, ptr %44, i64 -4
  %46 = load i32, ptr %45, align 4, !tbaa !113
  %47 = add i32 %46, 1
  store i32 %47, ptr %45, align 4, !tbaa !113
  br label %48

48:                                               ; preds = %._ZNK3euf5enode8merge_tfEv.exit_crit_edge, %_ZNK3euf5enode8merge_tfEv.exit.thr_comm, %3, %_ZN6vectorIN3euf6egraph13update_recordELb0EjE9push_backEOS2_.exit, %_ZNK3euf5enode8merge_tfEv.exit
  ret void
}